; Function Attrs: mustprogress uwtable
define internal void @_ZN12_GLOBAL__N_141ThrowDelegate_ThrowStdBadAllocNoWhat_Test8TestBodyEv(ptr nocapture nonnull readnone align 8 %this) unnamed_addr #3 align 2 personality ptr @__gxx_personality_v0 {
entry:
  invoke void @_ZN4absl13base_internal16ThrowStdBadAllocEv()
          to label %invoke.cont.unreachable.i unwind label %lpad.i

invoke.cont.unreachable.i:                        ; preds = %entry
  unreachable

lpad.i:                                           ; preds = %entry
  %0 = landingpad { ptr, i32 }
          catch ptr @_ZTISt9bad_alloc
  %1 = extractvalue { ptr, i32 } %0, 1
  %2 = tail call i32 @llvm.eh.typeid.for(ptr nonnull @_ZTISt9bad_alloc) #13
  %matches.i = icmp eq i32 %1, %2
  br i1 %matches.i, label %_ZN12_GLOBAL__N_117ExpectThrowNoWhatISt9bad_allocEEvPFvvE.exit, label %eh.resume.i

eh.resume.i:                                      ; preds = %lpad.i
  resume { ptr, i32 } %0

_ZN12_GLOBAL__N_117ExpectThrowNoWhatISt9bad_allocEEvPFvvE.exit: ; preds = %lpad.i
  %3 = extractvalue { ptr, i32 } %0, 0
  %4 = tail call ptr @__cxa_begin_catch(ptr %3) #13
  tail call void @__cxa_end_catch()
  ret void
}